(lp0
(icookielib
Cookie
p1
(dp2
S'comment'
p3
NsS'domain'
p4
S'.vkontakte.ru'
p5
sS'name'
p6
S'remixchk'
p7
sS'domain_initial_dot'
p8
I01
sS'expires'
p9
I1342501742
sS'value'
p10
S'5'
p11
sS'domain_specified'
p12
I01
sS'_rest'
p13
(dp14
sS'version'
p15
I0
sS'port_specified'
p16
I00
sS'rfc2109'
p17
I00
sS'discard'
p18
I00
sS'path_specified'
p19
I01
sS'path'
p20
S'/'
p21
sS'port'
p22
NsS'comment_url'
p23
NsS'secure'
p24
I00
sba.